; Function Attrs: mustprogress uwtable
define noundef nonnull align 8 dereferenceable(16) ptr @_ZNK3gmx21SelectionParserSymbol13variableValueEv(ptr nocapture noundef nonnull readonly align 8 dereferenceable(8) %0) local_unnamed_addr #7 align 2 {
  %2 = load ptr, ptr %0, align 8
  %3 = getelementptr inbounds i8, ptr %2, i64 32
  %4 = load i32, ptr %3, align 8
  %5 = icmp eq i32 %4, 1
  br i1 %5, label %7, label %6

6:                                                ; preds = %1
  tail call void @_ZN3gmx8internal13assertHandlerEPKcS2_S2_S2_i(ptr noundef nonnull @.str.3, ptr noundef nonnull @.str.4, ptr noundef nonnull @"__PRETTY_FUNCTION__._ZZNK3gmx21SelectionParserSymbol13variableValueEvENK3$_0clEv", ptr noundef nonnull @.str.2, i32 noundef 118) #22
  unreachable

7:                                                ; preds = %1
  %8 = getelementptr inbounds i8, ptr %2, i64 48
  ret ptr %8
}